; Function Attrs: mustprogress uwtable
define void @_ZN6Assimp8Importer18SetProgressHandlerEPNS_15ProgressHandlerE(ptr nocapture noundef nonnull readonly align 8 dereferenceable(8) %this, ptr noundef %pHandler) local_unnamed_addr #2 align 2 personality ptr @__gxx_personality_v0 {
entry:
  %tobool.not = icmp eq ptr %pHandler, null
  br i1 %tobool.not, label %if.then, label %if.else

if.then:                                          ; preds = %entry
  %call.i3 = invoke noalias noundef nonnull dereferenceable(8) ptr @_Znwm(i64 noundef 8) #24
          to label %invoke.cont unwind label %lpad

invoke.cont:                                      ; preds = %if.then
  store ptr getelementptr inbounds ({ [8 x ptr] }, ptr @_ZTVN6Assimp22DefaultProgressHandlerE, i64 0, i32 0, i64 2), ptr %call.i3, align 8
  %0 = load ptr, ptr %this, align 8
  %mProgressHandler = getelementptr inbounds i8, ptr %0, i64 16
  store ptr %call.i3, ptr %mProgressHandler, align 8
  %1 = load ptr, ptr %this, align 8
  %mIsDefaultProgressHandler = getelementptr inbounds i8, ptr %1, i64 24
  store i8 1, ptr %mIsDefaultProgressHandler, align 8
  br label %try.cont

lpad:                                             ; preds = %if.then
  %2 = landingpad { ptr, i32 }
          catch ptr null
  %3 = extractvalue { ptr, i32 } %2, 0
  %4 = tail call ptr @__cxa_begin_catch(ptr %3) #25
  tail call void @__cxa_end_catch()
  br label %try.cont

if.else:                                          ; preds = %entry
  %5 = load ptr, ptr %this, align 8
  %mProgressHandler4 = getelementptr inbounds i8, ptr %5, i64 16
  %6 = load ptr, ptr %mProgressHandler4, align 8
  %cmp.not = icmp eq ptr %6, %pHandler
  br i1 %cmp.not, label %try.cont, label %if.then5

if.then5:                                         ; preds = %if.else
  %isnull = icmp eq ptr %6, null
  br i1 %isnull, label %delete.end, label %delete.notnull

delete.notnull:                                   ; preds = %if.then5
  %vtable = load ptr, ptr %6, align 8
  %vfn = getelementptr inbounds i8, ptr %vtable, i64 8
  %7 = load ptr, ptr %vfn, align 8
  tail call void %7(ptr noundef nonnull align 8 dereferenceable(8) %6) #25
  %.pre = load ptr, ptr %this, align 8
  br label %delete.end

delete.end:                                       ; preds = %delete.notnull, %if.then5
  %8 = phi ptr [ %.pre, %delete.notnull ], [ %5, %if.then5 ]
  %mProgressHandler9 = getelementptr inbounds i8, ptr %8, i64 16
  store ptr %pHandler, ptr %mProgressHandler9, align 8
  %9 = load ptr, ptr %this, align 8
  %mIsDefaultProgressHandler11 = getelementptr inbounds i8, ptr %9, i64 24
  store i8 0, ptr %mIsDefaultProgressHandler11, align 8
  br label %try.cont

try.cont:                                         ; preds = %invoke.cont, %delete.end, %if.else, %lpad
  ret void
}